target datalayout = "e-m:e-p270:32:32-p271:32:32-p272:64:64-i64:64-i128:128-f80:128-n8:16:32:64-S128"
target triple = "x86_64-unknown-linux-gnu"

%struct.UText = type { i32, i32, i32, i32, i64, i32, i32, i64, i32, i32, ptr, ptr, ptr, ptr, ptr, ptr, ptr, ptr, i64, i32, i32, i64, i32, i32 }
%"class.icu_75::UnicodeString" = type { %"class.icu_75::Replaceable", %"union.icu_75::UnicodeString::StackBufferOrFields" }
%"class.icu_75::Replaceable" = type { %"class.icu_75::UObject" }
%"class.icu_75::UObject" = type { ptr }
%"union.icu_75::UnicodeString::StackBufferOrFields" = type { %struct.anon.0, [32 x i8] }
%struct.anon.0 = type { i16, i32, i32, ptr }
%"class.icu_75::Char16Ptr" = type { ptr }

; Function Attrs: mustprogress nounwind uwtable
define linkonce_odr noundef ptr @_ZNK6icu_759Char16Ptr3getEv(ptr noundef nonnull align 8 dereferenceable(8) %this) #1 comdat align 2 {
entry:
  %this.addr = alloca ptr, align 8
  store ptr %this, ptr %this.addr, align 8
  %this1 = load ptr, ptr %this.addr, align 8
  %p_ = getelementptr inbounds %"class.icu_75::Char16Ptr", ptr %this1, i32 0, i32 0
  %0 = load ptr, ptr %p_, align 8
  ret ptr %0
}

; Function Attrs: mustprogress uwtable
define linkonce_odr noundef ptr @_ZNK6icu_759Char16PtrcvPDsEv(ptr noundef nonnull align 8 dereferenceable(8) %this) #0 comdat align 2 {
entry:
  %this.addr = alloca ptr, align 8
  store ptr %this, ptr %this.addr, align 8
  %this1 = load ptr, ptr %this.addr, align 8
  %call = call noundef ptr @_ZNK6icu_759Char16Ptr3getEv(ptr noundef nonnull align 8 dereferenceable(8) %this1)
  ret ptr %call
}

; Function Attrs: mustprogress nounwind uwtable
define linkonce_odr noundef i32 @_ZNK6icu_7513UnicodeString14getShortLengthEv(ptr noundef nonnull align 8 dereferenceable(64) %this) #1 comdat align 2 {
entry:
  %this.addr = alloca ptr, align 8
  store ptr %this, ptr %this.addr, align 8
  %this1 = load ptr, ptr %this.addr, align 8
  %fUnion = getelementptr inbounds %"class.icu_75::UnicodeString", ptr %this1, i32 0, i32 1
  %fLengthAndFlags = getelementptr inbounds %struct.anon.0, ptr %fUnion, i32 0, i32 0
  %0 = load i16, ptr %fLengthAndFlags, align 8
  %conv = sext i16 %0 to i32
  %shr = ashr i32 %conv, 5
  ret i32 %shr
}

; Function Attrs: mustprogress nounwind uwtable
define linkonce_odr noundef signext i8 @_ZNK6icu_7513UnicodeString14hasShortLengthEv(ptr noundef nonnull align 8 dereferenceable(64) %this) #1 comdat align 2 {
entry:
  %this.addr = alloca ptr, align 8
  store ptr %this, ptr %this.addr, align 8
  %this1 = load ptr, ptr %this.addr, align 8
  %fUnion = getelementptr inbounds %"class.icu_75::UnicodeString", ptr %this1, i32 0, i32 1
  %fLengthAndFlags = getelementptr inbounds %struct.anon.0, ptr %fUnion, i32 0, i32 0
  %0 = load i16, ptr %fLengthAndFlags, align 8
  %conv = sext i16 %0 to i32
  %cmp = icmp sge i32 %conv, 0
  %conv2 = zext i1 %cmp to i8
  ret i8 %conv2
}

; Function Attrs: mustprogress nounwind uwtable
define linkonce_odr void @_ZN6icu_759Char16PtrD2Ev(ptr noundef nonnull align 8 dereferenceable(8) %this) unnamed_addr #1 comdat align 2 {
entry:
  %this.addr = alloca ptr, align 8
  store ptr %this, ptr %this.addr, align 8
  %this1 = load ptr, ptr %this.addr, align 8
  %p_ = getelementptr inbounds %"class.icu_75::Char16Ptr", ptr %this1, i32 0, i32 0
  %0 = load ptr, ptr %p_, align 8
  call void asm sideeffect "", "rm,~{memory},~{dirflag},~{fpsr},~{flags}"(ptr %0) #8, !srcloc !19
  ret void
}

; Function Attrs: mustprogress uwtable
define linkonce_odr void @_ZNK6icu_7513UnicodeString7extractEiiNS_9Char16PtrEi(ptr noundef nonnull align 8 dereferenceable(64) %this, i32 noundef %start, i32 noundef %_length, ptr noundef %target, i32 noundef %targetStart) #0 comdat align 2 {
entry:
  %this.addr = alloca ptr, align 8
  %start.addr = alloca i32, align 4
  %_length.addr = alloca i32, align 4
  %target.indirect_addr = alloca ptr, align 8
  %targetStart.addr = alloca i32, align 4
  store ptr %this, ptr %this.addr, align 8
  store i32 %start, ptr %start.addr, align 4
  store i32 %_length, ptr %_length.addr, align 4
  store ptr %target, ptr %target.indirect_addr, align 8
  store i32 %targetStart, ptr %targetStart.addr, align 4
  %this1 = load ptr, ptr %this.addr, align 8
  %0 = load i32, ptr %start.addr, align 4
  %1 = load i32, ptr %_length.addr, align 4
  %call = call noundef ptr @_ZNK6icu_759Char16PtrcvPDsEv(ptr noundef nonnull align 8 dereferenceable(8) %target)
  %2 = load i32, ptr %targetStart.addr, align 4
  call void @_ZNK6icu_7513UnicodeString9doExtractEiiPDsi(ptr noundef nonnull align 8 dereferenceable(64) %this1, i32 noundef %0, i32 noundef %1, ptr noundef %call, i32 noundef %2)
  ret void
}

; Function Attrs: mustprogress nounwind uwtable
define linkonce_odr void @_ZN6icu_759Char16PtrC2EPDs(ptr noundef nonnull align 8 dereferenceable(8) %this, ptr noundef %p) unnamed_addr #1 comdat align 2 {
entry:
  %this.addr = alloca ptr, align 8
  %p.addr = alloca ptr, align 8
  store ptr %this, ptr %this.addr, align 8
  store ptr %p, ptr %p.addr, align 8
  %this1 = load ptr, ptr %this.addr, align 8
  %p_ = getelementptr inbounds %"class.icu_75::Char16Ptr", ptr %this1, i32 0, i32 0
  %0 = load ptr, ptr %p.addr, align 8
  store ptr %0, ptr %p_, align 8
  ret void
}

; Function Attrs: mustprogress nounwind uwtable
define internal noundef signext i8 @_ZL9U_FAILURE10UErrorCode(i32 noundef %code) #1 {
entry:
  %code.addr = alloca i32, align 4
  store i32 %code, ptr %code.addr, align 4
  %0 = load i32, ptr %code.addr, align 4
  %cmp = icmp sgt i32 %0, 0
  %conv = zext i1 %cmp to i8
  ret i8 %conv
}

; Function Attrs: mustprogress uwtable
define linkonce_odr noundef i32 @_ZNK6icu_7513UnicodeString6lengthEv(ptr noundef nonnull align 8 dereferenceable(64) %this) #0 comdat align 2 {
entry:
  %this.addr = alloca ptr, align 8
  store ptr %this, ptr %this.addr, align 8
  %this1 = load ptr, ptr %this.addr, align 8
  %call = call noundef signext i8 @_ZNK6icu_7513UnicodeString14hasShortLengthEv(ptr noundef nonnull align 8 dereferenceable(64) %this1)
  %tobool = icmp ne i8 %call, 0
  br i1 %tobool, label %cond.true, label %cond.false

cond.true:                                        ; preds = %entry
  %call2 = call noundef i32 @_ZNK6icu_7513UnicodeString14getShortLengthEv(ptr noundef nonnull align 8 dereferenceable(64) %this1)
  br label %cond.end

cond.false:                                       ; preds = %entry
  %fUnion = getelementptr inbounds %"class.icu_75::UnicodeString", ptr %this1, i32 0, i32 1
  %fLength = getelementptr inbounds %struct.anon.0, ptr %fUnion, i32 0, i32 1
  %0 = load i32, ptr %fLength, align 4
  br label %cond.end

cond.end:                                         ; preds = %cond.false, %cond.true
  %cond = phi i32 [ %call2, %cond.true ], [ %0, %cond.false ]
  ret i32 %cond
}

; Function Attrs: mustprogress uwtable
define internal noundef i32 @_ZL17unistrTextExtractP5UTextllPDsiP10UErrorCode(ptr noundef %t, i64 noundef %start, i64 noundef %limit, ptr noundef %dest, i32 noundef %destCapacity, ptr noundef %pErrorCode) #0 personality ptr @__gxx_personality_v0 {
entry:
  %retval = alloca i32, align 4
  %t.addr = alloca ptr, align 8
  %start.addr = alloca i64, align 8
  %limit.addr = alloca i64, align 8
  %dest.addr = alloca ptr, align 8
  %destCapacity.addr = alloca i32, align 4
  %pErrorCode.addr = alloca ptr, align 8
  %us = alloca ptr, align 8
  %length = alloca i32, align 4
  %start32 = alloca i32, align 4
  %limit32 = alloca i32, align 4
  %trimmedLength = alloca i32, align 4
  %agg.tmp = alloca %"class.icu_75::Char16Ptr", align 8
  %exn.slot = alloca ptr, align 8
  %ehselector.slot = alloca i32, align 4
  store ptr %t, ptr %t.addr, align 8
  store i64 %start, ptr %start.addr, align 8
  store i64 %limit, ptr %limit.addr, align 8
  store ptr %dest, ptr %dest.addr, align 8
  store i32 %destCapacity, ptr %destCapacity.addr, align 4
  store ptr %pErrorCode, ptr %pErrorCode.addr, align 8
  %0 = load ptr, ptr %t.addr, align 8
  %context = getelementptr inbounds %struct.UText, ptr %0, i32 0, i32 13
  %1 = load ptr, ptr %context, align 8
  store ptr %1, ptr %us, align 8
  %2 = load ptr, ptr %us, align 8
  %call = call noundef i32 @_ZNK6icu_7513UnicodeString6lengthEv(ptr noundef nonnull align 8 dereferenceable(64) %2)
  store i32 %call, ptr %length, align 4
  %3 = load ptr, ptr %pErrorCode.addr, align 8
  %4 = load i32, ptr %3, align 4
  %call1 = call noundef signext i8 @_ZL9U_FAILURE10UErrorCode(i32 noundef %4)
  %tobool = icmp ne i8 %call1, 0
  br i1 %tobool, label %if.then, label %if.end

if.then:                                          ; preds = %entry
  store i32 0, ptr %retval, align 4
  br label %return

if.end:                                           ; preds = %entry
  %5 = load i32, ptr %destCapacity.addr, align 4
  %cmp = icmp slt i32 %5, 0
  br i1 %cmp, label %if.then4, label %lor.lhs.false

lor.lhs.false:                                    ; preds = %if.end
  %6 = load ptr, ptr %dest.addr, align 8
  %cmp2 = icmp eq ptr %6, null
  br i1 %cmp2, label %land.lhs.true, label %if.end5

land.lhs.true:                                    ; preds = %lor.lhs.false
  %7 = load i32, ptr %destCapacity.addr, align 4
  %cmp3 = icmp sgt i32 %7, 0
  br i1 %cmp3, label %if.then4, label %if.end5

if.then4:                                         ; preds = %land.lhs.true, %if.end
  %8 = load ptr, ptr %pErrorCode.addr, align 8
  store i32 1, ptr %8, align 4
  br label %if.end5

if.end5:                                          ; preds = %if.then4, %land.lhs.true, %lor.lhs.false
  %9 = load i64, ptr %start.addr, align 8
  %cmp6 = icmp slt i64 %9, 0
  br i1 %cmp6, label %if.then9, label %lor.lhs.false7

lor.lhs.false7:                                   ; preds = %if.end5
  %10 = load i64, ptr %start.addr, align 8
  %11 = load i64, ptr %limit.addr, align 8
  %cmp8 = icmp sgt i64 %10, %11
  br i1 %cmp8, label %if.then9, label %if.end10

if.then9:                                         ; preds = %lor.lhs.false7, %if.end5
  %12 = load ptr, ptr %pErrorCode.addr, align 8
  store i32 8, ptr %12, align 4
  store i32 0, ptr %retval, align 4
  br label %return

if.end10:                                         ; preds = %lor.lhs.false7
  %13 = load i64, ptr %start.addr, align 8
  %14 = load i32, ptr %length, align 4
  %conv = sext i32 %14 to i64
  %cmp11 = icmp slt i64 %13, %conv
  br i1 %cmp11, label %cond.true, label %cond.false

cond.true:                                        ; preds = %if.end10
  %15 = load ptr, ptr %us, align 8
  %16 = load i64, ptr %start.addr, align 8
  %conv12 = trunc i64 %16 to i32
  %call13 = call noundef i32 @_ZNK6icu_7513UnicodeString14getChar32StartEi(ptr noundef nonnull align 8 dereferenceable(64) %15, i32 noundef %conv12)
  br label %cond.end

cond.false:                                       ; preds = %if.end10
  %17 = load i32, ptr %length, align 4
  br label %cond.end

cond.end:                                         ; preds = %cond.false, %cond.true
  %cond = phi i32 [ %call13, %cond.true ], [ %17, %cond.false ]
  store i32 %cond, ptr %start32, align 4
  %18 = load i64, ptr %limit.addr, align 8
  %19 = load i32, ptr %length, align 4
  %conv14 = sext i32 %19 to i64
  %cmp15 = icmp slt i64 %18, %conv14
  br i1 %cmp15, label %cond.true16, label %cond.false19

cond.true16:                                      ; preds = %cond.end
  %20 = load ptr, ptr %us, align 8
  %21 = load i64, ptr %limit.addr, align 8
  %conv17 = trunc i64 %21 to i32
  %call18 = call noundef i32 @_ZNK6icu_7513UnicodeString14getChar32StartEi(ptr noundef nonnull align 8 dereferenceable(64) %20, i32 noundef %conv17)
  br label %cond.end20

cond.false19:                                     ; preds = %cond.end
  %22 = load i32, ptr %length, align 4
  br label %cond.end20

cond.end20:                                       ; preds = %cond.false19, %cond.true16
  %cond21 = phi i32 [ %call18, %cond.true16 ], [ %22, %cond.false19 ]
  store i32 %cond21, ptr %limit32, align 4
  %23 = load i32, ptr %limit32, align 4
  %24 = load i32, ptr %start32, align 4
  %sub = sub nsw i32 %23, %24
  store i32 %sub, ptr %length, align 4
  %25 = load i32, ptr %destCapacity.addr, align 4
  %cmp22 = icmp sgt i32 %25, 0
  br i1 %cmp22, label %land.lhs.true23, label %if.else

land.lhs.true23:                                  ; preds = %cond.end20
  %26 = load ptr, ptr %dest.addr, align 8
  %cmp24 = icmp ne ptr %26, null
  br i1 %cmp24, label %if.then25, label %if.else

if.then25:                                        ; preds = %land.lhs.true23
  %27 = load i32, ptr %length, align 4
  store i32 %27, ptr %trimmedLength, align 4
  %28 = load i32, ptr %trimmedLength, align 4
  %29 = load i32, ptr %destCapacity.addr, align 4
  %cmp26 = icmp sgt i32 %28, %29
  br i1 %cmp26, label %if.then27, label %if.end28

if.then27:                                        ; preds = %if.then25
  %30 = load i32, ptr %destCapacity.addr, align 4
  store i32 %30, ptr %trimmedLength, align 4
  br label %if.end28

if.end28:                                         ; preds = %if.then27, %if.then25
  %31 = load ptr, ptr %us, align 8
  %32 = load i32, ptr %start32, align 4
  %33 = load i32, ptr %trimmedLength, align 4
  %34 = load ptr, ptr %dest.addr, align 8
  call void @_ZN6icu_759Char16PtrC2EPDs(ptr noundef nonnull align 8 dereferenceable(8) %agg.tmp, ptr noundef %34)
  invoke void @_ZNK6icu_7513UnicodeString7extractEiiNS_9Char16PtrEi(ptr noundef nonnull align 8 dereferenceable(64) %31, i32 noundef %32, i32 noundef %33, ptr noundef %agg.tmp, i32 noundef 0)
          to label %invoke.cont unwind label %lpad

invoke.cont:                                      ; preds = %if.end28
  call void @_ZN6icu_759Char16PtrD2Ev(ptr noundef nonnull align 8 dereferenceable(8) %agg.tmp) #8
  %35 = load i32, ptr %start32, align 4
  %36 = load i32, ptr %trimmedLength, align 4
  %add = add nsw i32 %35, %36
  %37 = load ptr, ptr %t.addr, align 8
  %chunkOffset = getelementptr inbounds %struct.UText, ptr %37, i32 0, i32 8
  store i32 %add, ptr %chunkOffset, align 8
  br label %if.end30

lpad:                                             ; preds = %if.end28
  %38 = landingpad { ptr, i32 }
          cleanup
  %39 = extractvalue { ptr, i32 } %38, 0
  store ptr %39, ptr %exn.slot, align 8
  %40 = extractvalue { ptr, i32 } %38, 1
  store i32 %40, ptr %ehselector.slot, align 4
  call void @_ZN6icu_759Char16PtrD2Ev(ptr noundef nonnull align 8 dereferenceable(8) %agg.tmp) #8
  br label %eh.resume

if.else:                                          ; preds = %land.lhs.true23, %cond.end20
  %41 = load i32, ptr %start32, align 4
  %42 = load ptr, ptr %t.addr, align 8
  %chunkOffset29 = getelementptr inbounds %struct.UText, ptr %42, i32 0, i32 8
  store i32 %41, ptr %chunkOffset29, align 8
  br label %if.end30

if.end30:                                         ; preds = %if.else, %invoke.cont
  %43 = load ptr, ptr %dest.addr, align 8
  %44 = load i32, ptr %destCapacity.addr, align 4
  %45 = load i32, ptr %length, align 4
  %46 = load ptr, ptr %pErrorCode.addr, align 8
  %call31 = call i32 @u_terminateUChars_75(ptr noundef %43, i32 noundef %44, i32 noundef %45, ptr noundef %46)
  %47 = load i32, ptr %length, align 4
  store i32 %47, ptr %retval, align 4
  br label %return

return:                                           ; preds = %if.end30, %if.then9, %if.then
  %48 = load i32, ptr %retval, align 4
  ret i32 %48

eh.resume:                                        ; preds = %lpad
  %exn = load ptr, ptr %exn.slot, align 8
  %sel = load i32, ptr %ehselector.slot, align 4
  %lpad.val = insertvalue { ptr, i32 } poison, ptr %exn, 0
  %lpad.val32 = insertvalue { ptr, i32 } %lpad.val, i32 %sel, 1
  resume { ptr, i32 } %lpad.val32
}