; Function Attrs: mustprogress uwtable
define internal noundef i32 @_ZL17unistrTextExtractP5UTextllPDsiP10UErrorCode(ptr nocapture noundef %t, i64 noundef %start, i64 noundef %limit, ptr noundef %dest, i32 noundef %destCapacity, ptr noundef %pErrorCode) #0 personality ptr @__gxx_personality_v0 {
entry:
  %context = getelementptr inbounds i8, ptr %t, i64 72
  %0 = load ptr, ptr %context, align 8
  %fUnion.i.i = getelementptr inbounds i8, ptr %0, i64 8
  %1 = load i16, ptr %fUnion.i.i, align 8
  %cmp.i.i = icmp slt i16 %1, 0
  %2 = ashr i16 %1, 5
  %shr.i.i = sext i16 %2 to i32
  %fLength.i = getelementptr inbounds i8, ptr %0, i64 12
  %3 = load i32, ptr %fLength.i, align 4
  %cond.i = select i1 %cmp.i.i, i32 %3, i32 %shr.i.i
  %4 = load i32, ptr %pErrorCode, align 4
  %cmp.i = icmp slt i32 %4, 1
  br i1 %cmp.i, label %if.end, label %return

if.end:                                           ; preds = %entry
  %cmp = icmp slt i32 %destCapacity, 0
  br i1 %cmp, label %if.then4, label %lor.lhs.false

lor.lhs.false:                                    ; preds = %if.end
  %cmp2 = icmp eq ptr %dest, null
  %cmp3 = icmp ne i32 %destCapacity, 0
  %or.cond = and i1 %cmp2, %cmp3
  br i1 %or.cond, label %if.then4, label %if.end5

if.then4:                                         ; preds = %lor.lhs.false, %if.end
  store i32 1, ptr %pErrorCode, align 4
  br label %if.end5

if.end5:                                          ; preds = %if.then4, %lor.lhs.false
  %cmp6 = icmp slt i64 %start, 0
  %cmp8 = icmp sgt i64 %start, %limit
  %or.cond34 = or i1 %cmp6, %cmp8
  br i1 %or.cond34, label %if.then9, label %if.end10

if.then9:                                         ; preds = %if.end5
  store i32 8, ptr %pErrorCode, align 4
  br label %return

if.end10:                                         ; preds = %if.end5
  %conv = sext i32 %cond.i to i64
  %cmp11 = icmp sgt i64 %conv, %start
  br i1 %cmp11, label %cond.true, label %cond.end

cond.true:                                        ; preds = %if.end10
  %conv12 = trunc i64 %start to i32
  %call13 = tail call noundef i32 @_ZNK6icu_7513UnicodeString14getChar32StartEi(ptr noundef nonnull align 8 dereferenceable(64) %0, i32 noundef %conv12)
  br label %cond.end

cond.end:                                         ; preds = %if.end10, %cond.true
  %cond = phi i32 [ %call13, %cond.true ], [ %cond.i, %if.end10 ]
  %cmp15 = icmp sgt i64 %conv, %limit
  br i1 %cmp15, label %cond.true16, label %cond.end20

cond.true16:                                      ; preds = %cond.end
  %conv17 = trunc i64 %limit to i32
  %call18 = tail call noundef i32 @_ZNK6icu_7513UnicodeString14getChar32StartEi(ptr noundef nonnull align 8 dereferenceable(64) %0, i32 noundef %conv17)
  br label %cond.end20

cond.end20:                                       ; preds = %cond.end, %cond.true16
  %cond21 = phi i32 [ %call18, %cond.true16 ], [ %cond.i, %cond.end ]
  %sub = sub nsw i32 %cond21, %cond
  %cmp22 = icmp sgt i32 %destCapacity, 0
  %cmp24 = icmp ne ptr %dest, null
  %or.cond1 = and i1 %cmp24, %cmp22
  br i1 %or.cond1, label %if.then25, label %if.end30

if.then25:                                        ; preds = %cond.end20
  %spec.select = tail call i32 @llvm.smin.i32(i32 %sub, i32 %destCapacity)
  invoke void @_ZNK6icu_7513UnicodeString9doExtractEiiPDsi(ptr noundef nonnull align 8 dereferenceable(64) %0, i32 noundef %cond, i32 noundef %spec.select, ptr noundef nonnull %dest, i32 noundef 0)
          to label %invoke.cont unwind label %lpad

invoke.cont:                                      ; preds = %if.then25
  tail call void asm sideeffect "", "rm,~{memory},~{dirflag},~{fpsr},~{flags}"(ptr nonnull %dest) #14, !srcloc !18
  %add = add nsw i32 %spec.select, %cond
  br label %if.end30

lpad:                                             ; preds = %if.then25
  %5 = landingpad { ptr, i32 }
          cleanup
  tail call void asm sideeffect "", "rm,~{memory},~{dirflag},~{fpsr},~{flags}"(ptr nonnull %dest) #14, !srcloc !18
  resume { ptr, i32 } %5

if.end30:                                         ; preds = %cond.end20, %invoke.cont
  %cond.sink = phi i32 [ %add, %invoke.cont ], [ %cond, %cond.end20 ]
  %chunkOffset29 = getelementptr inbounds i8, ptr %t, i64 40
  store i32 %cond.sink, ptr %chunkOffset29, align 8
  %call31 = tail call i32 @u_terminateUChars_75(ptr noundef %dest, i32 noundef %destCapacity, i32 noundef %sub, ptr noundef nonnull %pErrorCode)
  br label %return

return:                                           ; preds = %entry, %if.end30, %if.then9
  %retval.0 = phi i32 [ 0, %if.then9 ], [ %sub, %if.end30 ], [ 0, %entry ]
  ret i32 %retval.0
}